target datalayout = "e-m:e-p270:32:32-p271:32:32-p272:64:64-i64:64-i128:128-f80:128-n8:16:32:64-S128"
target triple = "x86_64-pc-linux-gnu"

%"class.net::SpdyFramerVisitorAdapter" = type { %"class.net::SpdyFramerVisitorInterface", ptr, ptr }
%"class.net::SpdyFramerVisitorInterface" = type { ptr }

; Function Attrs: mustprogress uwtable
define void @_ZN3net24SpdyFramerVisitorAdapter13OnPushPromiseEjjb(ptr noundef nonnull align 8 dereferenceable(24) %0, i32 noundef %1, i32 noundef %2, i1 noundef zeroext %3) unnamed_addr #2 align 2 {
  %5 = alloca ptr, align 8
  %6 = alloca i32, align 4
  %7 = alloca i32, align 4
  %8 = alloca i8, align 1
  store ptr %0, ptr %5, align 8, !tbaa !22
  store i32 %1, ptr %6, align 4, !tbaa !30
  store i32 %2, ptr %7, align 4, !tbaa !30
  %9 = zext i1 %3 to i8
  store i8 %9, ptr %8, align 1, !tbaa !19
  %10 = load ptr, ptr %5, align 8
  %11 = getelementptr inbounds nuw %"class.net::SpdyFramerVisitorAdapter", ptr %10, i32 0, i32 1
  %12 = load ptr, ptr %11, align 8, !tbaa !26
  %13 = load i32, ptr %6, align 4, !tbaa !30
  %14 = load i32, ptr %7, align 4, !tbaa !30
  %15 = load i8, ptr %8, align 1, !tbaa !19, !range !20, !noundef !21
  %16 = trunc i8 %15 to i1
  %17 = load ptr, ptr %12, align 8, !tbaa !8
  %18 = getelementptr inbounds ptr, ptr %17, i64 25
  %19 = load ptr, ptr %18, align 8
  call void %19(ptr noundef nonnull align 8 dereferenceable(8) %12, i32 noundef %13, i32 noundef %14, i1 noundef zeroext %16)
  ret void
}